; Function Attrs: null_pointer_is_valid sspstrong uwtable
define internal noundef zeroext i16 @be_speech_ver(ptr noundef %0, ptr noundef %1, ptr readnone captures(none) %2, i32 noundef %3, i32 %4, ptr noundef %5, i32 noundef %6) #1 {
  %8 = tail call zeroext i8 @tvb_get_uint8(ptr noundef %0, i32 noundef %3)
  %9 = load i32, ptr @hf_gsm_a_b8spare, align 4
  %10 = tail call ptr @proto_tree_add_item(ptr noundef %1, i32 noundef %9, ptr noundef %0, i32 noundef %3, i32 noundef 1, i32 noundef 0)
  %11 = load i32, ptr @hf_gsm_a_bssmap_speech_version_id, align 4
  %12 = tail call ptr @proto_tree_add_item(ptr noundef %1, i32 noundef %11, ptr noundef %0, i32 noundef %3, i32 noundef 1, i32 noundef 0)
  %.not = icmp eq ptr %5, null
  br i1 %.not, label %19, label %13

13:                                               ; preds = %7
  %14 = sext i32 %6 to i64
  %15 = and i8 %8, 127
  %16 = zext nneg i8 %15 to i32
  %17 = tail call ptr @rval_to_str_const(i32 noundef %16, ptr noundef nonnull @speech_version_id_short_rvals, ptr noundef nonnull @.str.28)
  %18 = tail call i32 (ptr, i64, i32, i64, ptr, ...) @__snprintf_chk(ptr noundef nonnull %5, i64 noundef %14, i32 noundef 2, i64 noundef -1, ptr noundef nonnull @.str.96, ptr noundef %17)
  br label %19

19:                                               ; preds = %13, %7
  ret i16 1
}